(lp0
S'poi'
p1
aS'salary'
p2
aS'deferral_payments'
p3
aS'bonus'
p4
aS'deferred_income'
p5
aS'total_stock_value'
p6
aS'expenses'
p7
aS'exercised_stock_options'
p8
aS'other'
p9
aS'long_term_incentive'
p10
aS'restricted_stock'
p11
aS'director_fees'
p12
aS'shared_receipt_with_poi'
p13
aS'to_messages'
p14
aS'from_messages'
p15
aS'from_poi_to_this_person'
p16
aS'from_this_person_to_poi'
p17
a.